; Function Attrs: mustprogress nounwind uwtable
define internal fastcc void @_ZN12_GLOBAL__N_112StmtProfiler24VisitObjCBridgedCastExprEPKN5clang19ObjCBridgedCastExprE(ptr noundef nonnull align 8 dereferenceable(18) %0, ptr noundef %1) unnamed_addr #0 align 2 {
  tail call fastcc void @_ZN12_GLOBAL__N_112StmtProfiler9VisitStmtEPKN5clang4StmtE(ptr noundef nonnull align 8 dereferenceable(18) %0, ptr noundef %1)
  %3 = getelementptr inbounds nuw i8, ptr %1, i64 24
  %4 = load ptr, ptr %3, align 8
  %.sroa.0.0.copyload.i.i = load i64, ptr %4, align 8
  %5 = load ptr, ptr %0, align 8
  %6 = getelementptr inbounds nuw i8, ptr %5, i64 32
  %7 = load ptr, ptr %6, align 8
  tail call void %7(ptr noundef nonnull align 8 dereferenceable(18) %0, i64 %.sroa.0.0.copyload.i.i) #11
  %8 = getelementptr inbounds nuw i8, ptr %0, i64 8
  %9 = load ptr, ptr %8, align 8
  %10 = getelementptr inbounds nuw i8, ptr %1, i64 40
  %11 = load i8, ptr %10, align 8
  %12 = tail call noundef i64 @_ZNK4llvm15SmallVectorBaseIjE4sizeEv(ptr noundef nonnull align 8 dereferenceable(144) %9) #11
  %13 = add i64 %12, 1
  %14 = tail call noundef i64 @_ZNK4llvm15SmallVectorBaseIjE8capacityEv(ptr noundef nonnull align 8 dereferenceable(144) %9) #11
  %.not.i.i.i.i.i = icmp ugt i64 %13, %14
  br i1 %.not.i.i.i.i.i, label %15, label %_ZN4llvm16FoldingSetNodeID10AddBooleanEb.exit

15:                                               ; preds = %2
  %16 = getelementptr inbounds nuw i8, ptr %9, i64 16
  tail call void @_ZN4llvm15SmallVectorBaseIjE8grow_podEPvmm(ptr noundef nonnull align 8 dereferenceable(144) %9, ptr noundef nonnull %16, i64 noundef %13, i64 noundef 4) #11
  br label %_ZN4llvm16FoldingSetNodeID10AddBooleanEb.exit

_ZN4llvm16FoldingSetNodeID10AddBooleanEb.exit:    ; preds = %2, %15
  %17 = and i8 %11, 3
  %18 = icmp ne i8 %17, 0
  %19 = zext i1 %18 to i32
  %20 = load ptr, ptr %9, align 8
  %21 = tail call noundef i64 @_ZNK4llvm15SmallVectorBaseIjE4sizeEv(ptr noundef nonnull align 8 dereferenceable(144) %9) #11
  %22 = getelementptr inbounds i32, ptr %20, i64 %21
  store i32 %19, ptr %22, align 1
  %23 = tail call noundef i64 @_ZNK4llvm15SmallVectorBaseIjE4sizeEv(ptr noundef nonnull align 8 dereferenceable(144) %9) #11
  %24 = add i64 %23, 1
  tail call void @_ZN4llvm15SmallVectorBaseIjE8set_sizeEm(ptr noundef nonnull align 8 dereferenceable(144) %9, i64 noundef %24) #11
  ret void
}